target datalayout = "e-m:e-p270:32:32-p271:32:32-p272:64:64-i64:64-i128:128-f80:128-n8:16:32:64-S128"
target triple = "x86_64-pc-linux-gnu"

%"struct.llvm::DWARFTypePrinter" = type <{ ptr, i8, i8, [6 x i8] }>
%"class.llvm::DWARFDie" = type { ptr, ptr }

; Function Attrs: mustprogress nounwind uwtable
define linkonce_odr hidden void @_ZN4llvm16DWARFTypePrinterC2ERNS_11raw_ostreamE(ptr noundef nonnull align 8 dereferenceable(10) %0, ptr noundef nonnull align 8 dereferenceable(48) %1) unnamed_addr #0 comdat align 2 {
  %3 = alloca ptr, align 8
  %4 = alloca ptr, align 8
  store ptr %0, ptr %3, align 8
  store ptr %1, ptr %4, align 8
  %5 = load ptr, ptr %3, align 8
  %6 = getelementptr inbounds nuw %"struct.llvm::DWARFTypePrinter", ptr %5, i32 0, i32 0
  %7 = load ptr, ptr %4, align 8
  store ptr %7, ptr %6, align 8
  %8 = getelementptr inbounds nuw %"struct.llvm::DWARFTypePrinter", ptr %5, i32 0, i32 1
  store i8 1, ptr %8, align 8
  %9 = getelementptr inbounds nuw %"struct.llvm::DWARFTypePrinter", ptr %5, i32 0, i32 2
  store i8 0, ptr %9, align 1
  ret void
}

; Function Attrs: mustprogress nounwind uwtable
define dso_local void @_ZN4llvm21dumpTypeQualifiedNameERKNS_8DWARFDieERNS_11raw_ostreamE(ptr noundef nonnull align 8 dereferenceable(16) %0, ptr noundef nonnull align 8 dereferenceable(48) %1) #0 {
  %3 = alloca ptr, align 8
  %4 = alloca ptr, align 8
  %5 = alloca %"struct.llvm::DWARFTypePrinter", align 8
  %6 = alloca %"class.llvm::DWARFDie", align 8
  store ptr %0, ptr %3, align 8
  store ptr %1, ptr %4, align 8
  %7 = load ptr, ptr %4, align 8
  call void @_ZN4llvm16DWARFTypePrinterC2ERNS_11raw_ostreamE(ptr noundef nonnull align 8 dereferenceable(10) %5, ptr noundef nonnull align 8 dereferenceable(48) %7)
  %8 = load ptr, ptr %3, align 8
  call void @llvm.memcpy.p0.p0.i64(ptr align 8 %6, ptr align 8 %8, i64 16, i1 false)
  %9 = getelementptr inbounds nuw { ptr, ptr }, ptr %6, i32 0, i32 0
  %10 = load ptr, ptr %9, align 8
  %11 = getelementptr inbounds nuw { ptr, ptr }, ptr %6, i32 0, i32 1
  %12 = load ptr, ptr %11, align 8
  call void @_ZN4llvm16DWARFTypePrinter19appendQualifiedNameENS_8DWARFDieE(ptr noundef nonnull align 8 dereferenceable(10) %5, ptr %10, ptr %12)
  ret void
}