; Function Attrs: mustprogress nounwind uwtable
define dso_local void @_ZN4llvm21dumpTypeQualifiedNameERKNS_8DWARFDieERNS_11raw_ostreamE(ptr noundef nonnull readonly align 8 captures(none) dereferenceable(16) %0, ptr noundef nonnull align 8 dereferenceable(48) %1) local_unnamed_addr #0 {
  %3 = alloca %"struct.llvm::DWARFTypePrinter", align 8
  store ptr %1, ptr %3, align 8
  %4 = getelementptr inbounds nuw i8, ptr %3, i64 8
  store i8 1, ptr %4, align 8
  %5 = getelementptr inbounds nuw i8, ptr %3, i64 9
  store i8 0, ptr %5, align 1
  %.sroa.0.0.copyload = load ptr, ptr %0, align 8
  %.sroa.2.0..sroa_idx = getelementptr inbounds nuw i8, ptr %0, i64 8
  %.sroa.2.0.copyload = load ptr, ptr %.sroa.2.0..sroa_idx, align 8
  call void @_ZN4llvm16DWARFTypePrinter19appendQualifiedNameENS_8DWARFDieE(ptr noundef nonnull align 8 dereferenceable(10) %3, ptr %.sroa.0.0.copyload, ptr %.sroa.2.0.copyload) #19
  ret void
}